; Function Attrs: mustprogress uwtable
define noundef ptr @_ZNK6icu_7710ICUService3getERKNS_13UnicodeStringER10UErrorCode(ptr noundef nonnull align 8 dereferenceable(120) %0, ptr noundef nonnull align 8 dereferenceable(64) %1, ptr noundef nonnull align 4 dereferenceable(4) %2) local_unnamed_addr #0 align 2 {
  %4 = load ptr, ptr %0, align 8, !tbaa !3
  %5 = getelementptr inbounds nuw i8, ptr %4, i64 104
  %6 = load ptr, ptr %5, align 8
  %7 = tail call noundef ptr %6(ptr noundef nonnull align 8 dereferenceable(120) %0, ptr noundef nonnull align 8 dereferenceable(64) %1, ptr noundef nonnull align 4 dereferenceable(4) %2)
  %.not.i = icmp eq ptr %7, null
  br i1 %.not.i, label %_ZNK6icu_7710ICUService3getERKNS_13UnicodeStringEPS1_R10UErrorCode.exit, label %8

8:                                                ; preds = %3
  %9 = load ptr, ptr %0, align 8, !tbaa !3
  %10 = getelementptr inbounds nuw i8, ptr %9, i64 56
  %11 = load ptr, ptr %10, align 8
  %12 = tail call noundef ptr %11(ptr noundef nonnull align 8 dereferenceable(120) %0, ptr noundef nonnull align 8 dereferenceable(72) %7, ptr noundef null, ptr noundef nonnull align 4 dereferenceable(4) %2)
  %13 = load ptr, ptr %7, align 8, !tbaa !3
  %14 = getelementptr inbounds nuw i8, ptr %13, i64 8
  %15 = load ptr, ptr %14, align 8
  tail call void %15(ptr noundef nonnull align 8 dereferenceable(72) %7) #17
  br label %_ZNK6icu_7710ICUService3getERKNS_13UnicodeStringEPS1_R10UErrorCode.exit

_ZNK6icu_7710ICUService3getERKNS_13UnicodeStringEPS1_R10UErrorCode.exit: ; preds = %3, %8
  %.0.i = phi ptr [ %12, %8 ], [ null, %3 ]
  ret ptr %.0.i
}